; Function Attrs: mustprogress uwtable
define noundef ptr @_ZN9grpc_core14promise_detail20FreestandingActivity9RefHandleEv(ptr noundef nonnull align 8 dereferenceable(40) %0) local_unnamed_addr #6 align 2 personality ptr @__gxx_personality_v0 {
  %2 = getelementptr inbounds nuw i8, ptr %0, i64 32
  %3 = load ptr, ptr %2, align 8, !tbaa !13
  %4 = icmp eq ptr %3, null
  br i1 %4, label %5, label %10

5:                                                ; preds = %1
  %6 = tail call noalias noundef nonnull dereferenceable(32) ptr @_Znwm(i64 noundef 32) #24
  store ptr getelementptr inbounds nuw inrange(-16, 32) (i8, ptr @_ZTVN9grpc_core14promise_detail20FreestandingActivity6HandleE, i64 16), ptr %6, align 8, !tbaa !26
  %7 = getelementptr inbounds nuw i8, ptr %6, i64 8
  store i64 2, ptr %7, align 8, !tbaa !28
  %8 = getelementptr inbounds nuw i8, ptr %6, i64 16
  store i64 0, ptr %8, align 8, !tbaa !30
  %9 = getelementptr inbounds nuw i8, ptr %6, i64 24
  store ptr %0, ptr %9, align 8, !tbaa !31
  store ptr %6, ptr %2, align 8, !tbaa !13
  br label %14

10:                                               ; preds = %1
  %11 = getelementptr inbounds nuw i8, ptr %3, i64 8
  %12 = atomicrmw add ptr %11, i64 1 monotonic, align 8
  %13 = load ptr, ptr %2, align 8, !tbaa !13
  br label %14

14:                                               ; preds = %10, %5
  %.0 = phi ptr [ %6, %5 ], [ %13, %10 ]
  ret ptr %.0
}